target datalayout = "e-m:e-p270:32:32-p271:32:32-p272:64:64-i64:64-i128:128-f80:128-n8:16:32:64-S128"
target triple = "x86_64-pc-linux-gnu"

%struct.__sigset_t = type { [16 x i64] }
%struct.timespec = type { i64, i64 }

@.str.14 = private unnamed_addr constant [13 x i8] c"Pipe timeout\00", align 1
@.str.15 = private unnamed_addr constant [18 x i8] c"Pipe select error\00", align 1

; Function Attrs: nounwind uwtable
define internal i64 @write_pipe(i32 noundef %0, ptr noundef %1, i64 noundef %2, ptr noundef %3) #0 {
  %5 = alloca i32, align 4
  %6 = alloca ptr, align 8
  %7 = alloca i64, align 8
  %8 = alloca ptr, align 8
  %9 = alloca i32, align 4
  %10 = alloca i64, align 8
  %11 = alloca i64, align 8
  %12 = alloca %struct.__sigset_t, align 8
  %13 = alloca %struct.__sigset_t, align 8
  %14 = alloca %struct.timespec, align 8
  store i32 %0, ptr %5, align 4
  store ptr %1, ptr %6, align 8
  store i64 %2, ptr %7, align 8
  store ptr %3, ptr %8, align 8
  call void @llvm.lifetime.start.p0(i64 4, ptr %9) #9
  store i32 0, ptr %9, align 4
  call void @llvm.lifetime.start.p0(i64 8, ptr %10) #9
  store i64 0, ptr %10, align 8
  call void @llvm.lifetime.start.p0(i64 8, ptr %11) #9
  %15 = load i64, ptr %7, align 8
  %16 = load ptr, ptr %8, align 8
  %17 = load i64, ptr %16, align 8
  %18 = sub i64 %15, %17
  store i64 %18, ptr %11, align 8
  call void @llvm.lifetime.start.p0(i64 128, ptr %12) #9
  call void @llvm.lifetime.start.p0(i64 128, ptr %13) #9
  call void @llvm.lifetime.start.p0(i64 16, ptr %14) #9
  call void @llvm.memset.p0.i64(ptr align 8 %14, i8 0, i64 16, i1 false)
  %19 = load i32, ptr %5, align 4
  %20 = call i32 @SDL_IOReady(i32 noundef %19, i32 noundef 2, i64 noundef 14000000)
  store i32 %20, ptr %9, align 4
  %21 = call i32 @sigemptyset(ptr noundef %12) #9
  %22 = call i32 @sigaddset(ptr noundef %12, i32 noundef 13) #9
  %23 = call i32 @pthread_sigmask(i32 noundef 0, ptr noundef %12, ptr noundef %13) #9
  %24 = load i32, ptr %9, align 4
  %25 = icmp eq i32 %24, 0
  br i1 %25, label %26, label %29

26:                                               ; preds = %4
  %27 = call zeroext i1 (ptr, ...) @SDL_SetError_REAL(ptr noundef @.str.14)
  %28 = zext i1 %27 to i64
  store i64 %28, ptr %10, align 8
  br label %62

29:                                               ; preds = %4
  %30 = load i32, ptr %9, align 4
  %31 = icmp slt i32 %30, 0
  br i1 %31, label %32, label %35

32:                                               ; preds = %29
  %33 = call zeroext i1 (ptr, ...) @SDL_SetError_REAL(ptr noundef @.str.15)
  %34 = zext i1 %33 to i64
  store i64 %34, ptr %10, align 8
  br label %61

35:                                               ; preds = %29
  %36 = load i64, ptr %11, align 8
  %37 = icmp sgt i64 %36, 0
  br i1 %37, label %38, label %52

38:                                               ; preds = %35
  %39 = load i32, ptr %5, align 4
  %40 = load ptr, ptr %6, align 8
  %41 = load ptr, ptr %8, align 8
  %42 = load i64, ptr %41, align 8
  %43 = getelementptr inbounds nuw i8, ptr %40, i64 %42
  %44 = load i64, ptr %11, align 8
  %45 = icmp slt i64 %44, 4096
  br i1 %45, label %46, label %48

46:                                               ; preds = %38
  %47 = load i64, ptr %11, align 8
  br label %49

48:                                               ; preds = %38
  br label %49

49:                                               ; preds = %48, %46
  %50 = phi i64 [ %47, %46 ], [ 4096, %48 ]
  %51 = call i64 @write(i32 noundef %39, ptr noundef %43, i64 noundef %50)
  store i64 %51, ptr %10, align 8
  br label %52

52:                                               ; preds = %49, %35
  %53 = load i64, ptr %10, align 8
  %54 = icmp sgt i64 %53, 0
  br i1 %54, label %55, label %60

55:                                               ; preds = %52
  %56 = load i64, ptr %10, align 8
  %57 = load ptr, ptr %8, align 8
  %58 = load i64, ptr %57, align 8
  %59 = add i64 %58, %56
  store i64 %59, ptr %57, align 8
  br label %60

60:                                               ; preds = %55, %52
  br label %61

61:                                               ; preds = %60, %32
  br label %62

62:                                               ; preds = %61, %26
  %63 = call i32 @sigtimedwait(ptr noundef %12, ptr noundef null, ptr noundef %14)
  %64 = call i32 @pthread_sigmask(i32 noundef 2, ptr noundef %13, ptr noundef null) #9
  %65 = load i64, ptr %10, align 8
  call void @llvm.lifetime.end.p0(i64 16, ptr %14) #9
  call void @llvm.lifetime.end.p0(i64 128, ptr %13) #9
  call void @llvm.lifetime.end.p0(i64 128, ptr %12) #9
  call void @llvm.lifetime.end.p0(i64 8, ptr %11) #9
  call void @llvm.lifetime.end.p0(i64 8, ptr %10) #9
  call void @llvm.lifetime.end.p0(i64 4, ptr %9) #9
  ret i64 %65
}

; Function Attrs: nounwind uwtable
define internal i64 @Wayland_send_data(ptr noundef %0, i64 noundef %1, i32 noundef %2) #0 {
  %4 = alloca ptr, align 8
  %5 = alloca i64, align 8
  %6 = alloca i32, align 4
  %7 = alloca i64, align 8
  store ptr %0, ptr %4, align 8
  store i64 %1, ptr %5, align 8
  store i32 %2, ptr %6, align 4
  call void @llvm.lifetime.start.p0(i64 8, ptr %7) #9
  store i64 0, ptr %7, align 8
  %8 = load i64, ptr %5, align 8
  %9 = icmp ugt i64 %8, 0
  br i1 %9, label %10, label %22

10:                                               ; preds = %3
  %11 = load ptr, ptr %4, align 8
  %12 = icmp ne ptr %11, null
  br i1 %12, label %13, label %22

13:                                               ; preds = %10
  br label %14

14:                                               ; preds = %20, %13
  %15 = load i32, ptr %6, align 4
  %16 = load ptr, ptr %4, align 8
  %17 = load i64, ptr %5, align 8
  %18 = call i64 @write_pipe(i32 noundef %15, ptr noundef %16, i64 noundef %17, ptr noundef %7)
  %19 = icmp sgt i64 %18, 0
  br i1 %19, label %20, label %21

20:                                               ; preds = %14
  br label %14, !llvm.loop !3

21:                                               ; preds = %14
  br label %22

22:                                               ; preds = %21, %10, %3
  %23 = load i32, ptr %6, align 4
  %24 = call i32 @close(i32 noundef %23)
  %25 = load i64, ptr %7, align 8
  call void @llvm.lifetime.end.p0(i64 8, ptr %7) #9
  ret i64 %25
}