; Function Attrs: nounwind uwtable
define internal fastcc i64 @Wayland_send_data(ptr noundef readonly captures(address_is_null) %0, i64 noundef %1, i32 noundef %2) unnamed_addr #0 {
  %4 = alloca %struct.__sigset_t, align 8
  %5 = alloca %struct.__sigset_t, align 8
  %6 = alloca %struct.timespec, align 8
  %7 = icmp ne i64 %1, 0
  %8 = icmp ne ptr %0, null
  %or.cond = and i1 %8, %7
  br i1 %or.cond, label %.preheader, label %.loopexit

.preheader:                                       ; preds = %3, %write_pipe.exit
  %.1 = phi i64 [ %.2, %write_pipe.exit ], [ 0, %3 ]
  %9 = sub i64 %1, %.1
  call void @llvm.lifetime.start.p0(i64 128, ptr nonnull %4) #12
  call void @llvm.lifetime.start.p0(i64 128, ptr nonnull %5) #12
  call void @llvm.lifetime.start.p0(i64 16, ptr nonnull %6) #12
  call void @llvm.memset.p0.i64(ptr noundef nonnull align 8 dereferenceable(16) %6, i8 0, i64 16, i1 false)
  %10 = call i32 @SDL_IOReady(i32 noundef %2, i32 noundef 2, i64 noundef 14000000) #12
  %11 = call i32 @sigemptyset(ptr noundef nonnull %4) #12
  %12 = call i32 @sigaddset(ptr noundef nonnull %4, i32 noundef 13) #12
  %13 = call i32 @pthread_sigmask(i32 noundef 0, ptr noundef nonnull %4, ptr noundef nonnull %5) #12
  %14 = icmp eq i32 %10, 0
  br i1 %14, label %15, label %17

15:                                               ; preds = %.preheader
  %16 = call zeroext i1 (ptr, ...) @SDL_SetError_REAL(ptr noundef nonnull @.str.14) #12
  br label %write_pipe.exit

17:                                               ; preds = %.preheader
  %18 = icmp slt i32 %10, 0
  br i1 %18, label %19, label %21

19:                                               ; preds = %17
  %20 = call zeroext i1 (ptr, ...) @SDL_SetError_REAL(ptr noundef nonnull @.str.15) #12
  br label %write_pipe.exit

21:                                               ; preds = %17
  %22 = icmp sgt i64 %9, 0
  br i1 %22, label %23, label %write_pipe.exit

23:                                               ; preds = %21
  %24 = getelementptr inbounds nuw i8, ptr %0, i64 %.1
  %25 = call i64 @llvm.umin.i64(i64 %9, i64 4096)
  %26 = call i64 @write(i32 noundef %2, ptr noundef nonnull readonly %24, i64 noundef %25) #12
  %27 = call i64 @llvm.smax.i64(i64 %26, i64 0)
  %spec.select = add i64 %27, %.1
  %28 = icmp sgt i64 %26, 0
  br label %write_pipe.exit

write_pipe.exit:                                  ; preds = %23, %15, %19, %21
  %.2 = phi i64 [ %.1, %15 ], [ %.1, %19 ], [ %.1, %21 ], [ %spec.select, %23 ]
  %.0.i = phi i1 [ %16, %15 ], [ %20, %19 ], [ false, %21 ], [ %28, %23 ]
  %29 = call i32 @sigtimedwait(ptr noundef nonnull %4, ptr noundef null, ptr noundef nonnull %6) #12
  %30 = call i32 @pthread_sigmask(i32 noundef 2, ptr noundef nonnull %5, ptr noundef null) #12
  call void @llvm.lifetime.end.p0(i64 16, ptr nonnull %6) #12
  call void @llvm.lifetime.end.p0(i64 128, ptr nonnull %5) #12
  call void @llvm.lifetime.end.p0(i64 128, ptr nonnull %4) #12
  br i1 %.0.i, label %.preheader, label %.loopexit, !llvm.loop !3

.loopexit:                                        ; preds = %write_pipe.exit, %3
  %.0 = phi i64 [ 0, %3 ], [ %.2, %write_pipe.exit ]
  %31 = call i32 @close(i32 noundef %2) #12
  ret i64 %.0
}